# SymbolsHelper-Confirmed: 4:5.23.0 amd64
libkdecorations2.so.5 libkdecorations2-5v5 #MINVER#
* Build-Depends-Package: libkdecorations2-dev
 _ZN12KDecoration210Decoration10setBordersERK8QMargins@Base 5.1.50
 _ZN12KDecoration210Decoration10wheelEventEP11QWheelEvent@Base 5.1.50
 _ZN12KDecoration210Decoration11qt_metacallEN11QMetaObject4CallEiPPv@Base 5.1.50
 _ZN12KDecoration210Decoration11qt_metacastEPKc@Base 5.1.50
 _ZN12KDecoration210Decoration11setSettingsERK14QSharedPointerINS_18DecorationSettingsEE@Base 5.1.50
 _ZN12KDecoration210Decoration11setTitleBarERK5QRect@Base 5.1.50
 _ZN12KDecoration210Decoration12requestCloseEv@Base 5.1.50
 _ZN12KDecoration210Decoration13opaqueChangedEb@Base 5.1.50
 _ZN12KDecoration210Decoration13shadowChangedERK14QSharedPointerINS_16DecorationShadowEE@Base 5.1.50
 _ZN12KDecoration210Decoration14bordersChangedEv@Base 5.1.50
 _ZN12KDecoration210Decoration14hoverMoveEventEP11QHoverEvent@Base 5.1.50
 _ZN12KDecoration210Decoration14mouseMoveEventEP11QMouseEvent@Base 5.1.50
 _ZN12KDecoration210Decoration15hoverEnterEventEP11QHoverEvent@Base 5.1.50
 _ZN12KDecoration210Decoration15hoverLeaveEventEP11QHoverEvent@Base 5.1.50
 _ZN12KDecoration210Decoration15mousePressEventEP11QMouseEvent@Base 5.1.50
 _ZN12KDecoration210Decoration15requestMinimizeEv@Base 5.1.50
 _ZN12KDecoration210Decoration15titleBarChangedEv@Base 5.1.50
 _ZN12KDecoration210Decoration16staticMetaObjectE@Base 5.1.50
 _ZN12KDecoration210Decoration17mouseReleaseEventEP11QMouseEvent@Base 5.1.50
 _ZN12KDecoration210Decoration18requestContextHelpEv@Base 5.1.50
 _ZN12KDecoration210Decoration18requestHideToolTipEv@Base 4:5.13.1
 _ZN12KDecoration210Decoration18requestShowToolTipERK7QString@Base 4:5.13.1
 _ZN12KDecoration210Decoration18requestToggleShadeEv@Base 5.1.50
 _ZN12KDecoration210Decoration19showApplicationMenuEi@Base 4:5.10.3
 _ZN12KDecoration210Decoration20setResizeOnlyBordersERK8QMargins@Base 5.1.50
 _ZN12KDecoration210Decoration21requestShowWindowMenuERK5QRect@Base 4:5.20.90
 _ZN12KDecoration210Decoration21requestShowWindowMenuEv@Base 5.1.50
 _ZN12KDecoration210Decoration22requestToggleKeepAboveEv@Base 5.1.50
 _ZN12KDecoration210Decoration22requestToggleKeepBelowEv@Base 5.1.50
 _ZN12KDecoration210Decoration24resizeOnlyBordersChangedEv@Base 5.1.50
 _ZN12KDecoration210Decoration24sectionUnderMouseChangedEN2Qt18WindowFrameSectionE@Base 5.1.50
 _ZN12KDecoration210Decoration25requestToggleMaximizationE6QFlagsIN2Qt11MouseButtonEE@Base 5.1.50
 _ZN12KDecoration210Decoration26requestShowApplicationMenuERK5QRecti@Base 4:5.10.3
 _ZN12KDecoration210Decoration26requestToggleOnAllDesktopsEv@Base 5.1.50
 _ZN12KDecoration210Decoration4initEv@Base 5.1.50
 _ZN12KDecoration210Decoration5eventEP6QEvent@Base 5.1.50
 _ZN12KDecoration210Decoration6updateERK5QRect@Base 5.1.50
 _ZN12KDecoration210Decoration6updateEv@Base 5.1.50
 _ZN12KDecoration210Decoration7damagedERK7QRegion@Base 4:5.23.0
 _ZN12KDecoration210Decoration9setOpaqueEb@Base 5.1.50
 _ZN12KDecoration210Decoration9setShadowERK14QSharedPointerINS_16DecorationShadowEE@Base 5.1.50
 _ZN12KDecoration210DecorationC1EP7QObjectRK5QListI8QVariantE@Base 5.1.50
 _ZN12KDecoration210DecorationC2EP7QObjectRK5QListI8QVariantE@Base 5.1.50
 _ZN12KDecoration210DecorationD0Ev@Base 5.1.50
 _ZN12KDecoration210DecorationD1Ev@Base 5.1.50
 _ZN12KDecoration210DecorationD2Ev@Base 5.1.50
 _ZN12KDecoration215DecoratedClient11iconChangedE5QIcon@Base 5.1.50
 _ZN12KDecoration215DecoratedClient11qt_metacallEN11QMetaObject4CallEiPPv@Base 5.1.50
 _ZN12KDecoration215DecoratedClient11qt_metacastEPKc@Base 5.1.50
 _ZN12KDecoration215DecoratedClient11sizeChangedERK5QSize@Base 4:5.18.5
 _ZN12KDecoration215DecoratedClient12widthChangedEi@Base 5.1.50
 _ZN12KDecoration215DecoratedClient13activeChangedEb@Base 5.1.50
 _ZN12KDecoration215DecoratedClient13heightChangedEi@Base 5.1.50
 _ZN12KDecoration215DecoratedClient13shadedChangedEb@Base 5.1.50
 _ZN12KDecoration215DecoratedClient14captionChangedE7QString@Base 5.1.50
 _ZN12KDecoration215DecoratedClient14desktopChangedEi@Base 5.1.50
 _ZN12KDecoration215DecoratedClient14paletteChangedERK8QPalette@Base 5.1.50
 _ZN12KDecoration215DecoratedClient15moveableChangedEb@Base 5.1.50
 _ZN12KDecoration215DecoratedClient16closeableChangedEb@Base 5.1.50
 _ZN12KDecoration215DecoratedClient16keepAboveChangedEb@Base 5.1.50
 _ZN12KDecoration215DecoratedClient16keepBelowChangedEb@Base 5.1.50
 _ZN12KDecoration215DecoratedClient16maximizedChangedEb@Base 5.1.50
 _ZN12KDecoration215DecoratedClient16shadeableChangedEb@Base 5.1.50
 _ZN12KDecoration215DecoratedClient16staticMetaObjectE@Base 5.1.50
 _ZN12KDecoration215DecoratedClient17resizeableChangedEb@Base 5.1.50
 _ZN12KDecoration215DecoratedClient19maximizeableChangedEb@Base 5.1.50
 _ZN12KDecoration215DecoratedClient19minimizeableChangedEb@Base 5.1.50
 _ZN12KDecoration215DecoratedClient19showApplicationMenuEi@Base 4:5.10.3
 _ZN12KDecoration215DecoratedClient20onAllDesktopsChangedEb@Base 5.1.50
 _ZN12KDecoration215DecoratedClient25hasApplicationMenuChangedEb@Base 4:5.10.3
 _ZN12KDecoration215DecoratedClient26adjacentScreenEdgesChangedE6QFlagsIN2Qt4EdgeEE@Base 5.1.50
 _ZN12KDecoration215DecoratedClient26maximizedVerticallyChangedEb@Base 5.1.50
 _ZN12KDecoration215DecoratedClient26providesContextHelpChangedEb@Base 5.1.50
 _ZN12KDecoration215DecoratedClient28applicationMenuActiveChangedEb@Base 4:5.10.3
 _ZN12KDecoration215DecoratedClient28maximizedHorizontallyChangedEb@Base 5.1.50
 _ZN12KDecoration215DecoratedClientC1EPNS_10DecorationEPNS_16DecorationBridgeE@Base 5.1.50
 _ZN12KDecoration215DecoratedClientC2EPNS_10DecorationEPNS_16DecorationBridgeE@Base 5.1.50
 _ZN12KDecoration215DecoratedClientD0Ev@Base 5.1.50
 _ZN12KDecoration215DecoratedClientD1Ev@Base 5.1.50
 _ZN12KDecoration215DecoratedClientD2Ev@Base 5.1.50
 _ZN12KDecoration216DecorationButton10setCheckedEb@Base 5.1.50
 _ZN12KDecoration216DecorationButton10setEnabledEb@Base 5.1.50
 _ZN12KDecoration216DecorationButton10setVisibleEb@Base 5.1.50
 _ZN12KDecoration216DecorationButton10wheelEventEP11QWheelEvent@Base 5.1.50
 _ZN12KDecoration216DecorationButton11pointerLeftEv@Base 5.1.50
 _ZN12KDecoration216DecorationButton11qt_metacallEN11QMetaObject4CallEiPPv@Base 5.1.50
 _ZN12KDecoration216DecorationButton11qt_metacastEPKc@Base 5.1.50
 _ZN12KDecoration216DecorationButton11setGeometryERK6QRectF@Base 5.1.50
 _ZN12KDecoration216DecorationButton12setCheckableEb@Base 5.1.50
 _ZN12KDecoration216DecorationButton13doubleClickedEv@Base 5.1.50
 _ZN12KDecoration216DecorationButton14checkedChangedEb@Base 5.1.50
 _ZN12KDecoration216DecorationButton14enabledChangedEb@Base 5.1.50
 _ZN12KDecoration216DecorationButton14hoverMoveEventEP11QHoverEvent@Base 5.1.50
 _ZN12KDecoration216DecorationButton14hoveredChangedEb@Base 5.1.50
 _ZN12KDecoration216DecorationButton14mouseMoveEventEP11QMouseEvent@Base 5.1.50
 _ZN12KDecoration216DecorationButton14pointerEnteredEv@Base 5.1.50
 _ZN12KDecoration216DecorationButton14pressedChangedEb@Base 5.1.50
 _ZN12KDecoration216DecorationButton15geometryChangedERK6QRectF@Base 5.1.50
 _ZN12KDecoration216DecorationButton15hoverEnterEventEP11QHoverEvent@Base 5.1.50
 _ZN12KDecoration216DecorationButton15hoverLeaveEventEP11QHoverEvent@Base 5.1.50
 _ZN12KDecoration216DecorationButton15mousePressEventEP11QMouseEvent@Base 5.1.50
 _ZN12KDecoration216DecorationButton16checkableChangedEb@Base 5.1.50
 _ZN12KDecoration216DecorationButton16staticMetaObjectE@Base 5.1.50
 _ZN12KDecoration216DecorationButton17mouseReleaseEventEP11QMouseEvent@Base 5.1.50
 _ZN12KDecoration216DecorationButton17visibilityChangedEb@Base 5.1.50
 _ZN12KDecoration216DecorationButton18setAcceptedButtonsE6QFlagsIN2Qt11MouseButtonEE@Base 5.1.50
 _ZN12KDecoration216DecorationButton22acceptedButtonsChangedE6QFlagsIN2Qt11MouseButtonEE@Base 5.1.50
 _ZN12KDecoration216DecorationButton5eventEP6QEvent@Base 5.1.50
 _ZN12KDecoration216DecorationButton6updateERK6QRectF@Base 5.1.50
 _ZN12KDecoration216DecorationButton6updateEv@Base 5.1.50
 _ZN12KDecoration216DecorationButton7clickedEN2Qt11MouseButtonE@Base 5.1.50
 _ZN12KDecoration216DecorationButton7pressedEv@Base 5.1.50
 _ZN12KDecoration216DecorationButton8releasedEv@Base 5.1.50
 _ZN12KDecoration216DecorationButtonC1ENS_20DecorationButtonTypeERK8QPointerINS_10DecorationEEP7QObject@Base 5.1.50
 _ZN12KDecoration216DecorationButtonC2ENS_20DecorationButtonTypeERK8QPointerINS_10DecorationEEP7QObject@Base 5.1.50
 _ZN12KDecoration216DecorationButtonD0Ev@Base 5.1.50
 _ZN12KDecoration216DecorationButtonD1Ev@Base 5.1.50
 _ZN12KDecoration216DecorationButtonD2Ev@Base 5.1.50
 _ZN12KDecoration216DecorationShadow10setPaddingERK8QMargins@Base 5.1.50
 _ZN12KDecoration216DecorationShadow11qt_metacallEN11QMetaObject4CallEiPPv@Base 5.1.50
 _ZN12KDecoration216DecorationShadow11qt_metacastEPKc@Base 5.1.50
 _ZN12KDecoration216DecorationShadow13shadowChangedERK6QImage@Base 5.1.50
 _ZN12KDecoration216DecorationShadow14paddingChangedEv@Base 5.1.50
 _ZN12KDecoration216DecorationShadow16staticMetaObjectE@Base 5.1.50
 _ZN12KDecoration216DecorationShadow18setInnerShadowRectERK5QRect@Base 5.1.50
 _ZN12KDecoration216DecorationShadow22innerShadowRectChangedEv@Base 5.1.50
 _ZN12KDecoration216DecorationShadow9setShadowERK6QImage@Base 5.1.50
 _ZN12KDecoration216DecorationShadowC1Ev@Base 5.1.50
 _ZN12KDecoration216DecorationShadowC2Ev@Base 5.1.50
 _ZN12KDecoration216DecorationShadowD0Ev@Base 5.1.50
 _ZN12KDecoration216DecorationShadowD1Ev@Base 5.1.50
 _ZN12KDecoration216DecorationShadowD2Ev@Base 5.1.50
 _ZN12KDecoration218DecorationSettings11fontChangedERK5QFont@Base 5.1.50
 _ZN12KDecoration218DecorationSettings11qt_metacallEN11QMetaObject4CallEiPPv@Base 5.1.50
 _ZN12KDecoration218DecorationSettings11qt_metacastEPKc@Base 5.1.50
 _ZN12KDecoration218DecorationSettings12reconfiguredEv@Base 5.1.50+git20141206.0010+15.04
 _ZN12KDecoration218DecorationSettings14spacingChangedEv@Base 5.1.50
 _ZN12KDecoration218DecorationSettings15gridUnitChangedEi@Base 5.1.50
 _ZN12KDecoration218DecorationSettings16staticMetaObjectE@Base 5.1.50
 _ZN12KDecoration218DecorationSettings17borderSizeChangedENS_10BorderSizeE@Base 5.1.50
 _ZN12KDecoration218DecorationSettings28alphaChannelSupportedChangedEb@Base 5.1.50
 _ZN12KDecoration218DecorationSettings28decorationButtonsLeftChangedERK7QVectorINS_20DecorationButtonTypeEE@Base 5.1.50
 _ZN12KDecoration218DecorationSettings29decorationButtonsRightChangedERK7QVectorINS_20DecorationButtonTypeEE@Base 5.1.50
 _ZN12KDecoration218DecorationSettings29onAllDesktopsAvailableChangedEb@Base 5.1.50
 _ZN12KDecoration218DecorationSettings31closeOnDoubleClickOnMenuChangedEb@Base 5.1.50
 _ZN12KDecoration218DecorationSettingsC1EPNS_16DecorationBridgeEP7QObject@Base 5.1.50
 _ZN12KDecoration218DecorationSettingsC2EPNS_16DecorationBridgeEP7QObject@Base 5.1.50
 _ZN12KDecoration218DecorationSettingsD0Ev@Base 5.1.50
 _ZN12KDecoration218DecorationSettingsD1Ev@Base 5.1.50
 _ZN12KDecoration218DecorationSettingsD2Ev@Base 5.1.50
 _ZN12KDecoration221DecorationButtonGroup10posChangedERK7QPointF@Base 5.1.50
 _ZN12KDecoration221DecorationButtonGroup10setSpacingEd@Base 5.1.50
 _ZN12KDecoration221DecorationButtonGroup11qt_metacallEN11QMetaObject4CallEiPPv@Base 5.1.50
 _ZN12KDecoration221DecorationButtonGroup11qt_metacastEPKc@Base 5.1.50
 _ZN12KDecoration221DecorationButtonGroup12removeButtonENS_20DecorationButtonTypeE@Base 5.1.50
 _ZN12KDecoration221DecorationButtonGroup12removeButtonERK8QPointerINS_16DecorationButtonEE@Base 5.1.50
 _ZN12KDecoration221DecorationButtonGroup14spacingChangedEd@Base 5.1.50
 _ZN12KDecoration221DecorationButtonGroup15geometryChangedERK6QRectF@Base 5.1.50
 _ZN12KDecoration221DecorationButtonGroup16staticMetaObjectE@Base 5.1.50
 _ZN12KDecoration221DecorationButtonGroup5paintEP8QPainterRK5QRect@Base 5.1.50
 _ZN12KDecoration221DecorationButtonGroup6setPosERK7QPointF@Base 5.1.50
 _ZN12KDecoration221DecorationButtonGroup9addButtonERK8QPointerINS_16DecorationButtonEE@Base 5.1.50
 _ZN12KDecoration221DecorationButtonGroupC1ENS0_8PositionEPNS_10DecorationESt8functionIFPNS_16DecorationButtonENS_20DecorationButtonTypeES3_P7QObjectEE@Base 5.1.50
 _ZN12KDecoration221DecorationButtonGroupC1EPNS_10DecorationE@Base 5.1.50
 _ZN12KDecoration221DecorationButtonGroupC2ENS0_8PositionEPNS_10DecorationESt8functionIFPNS_16DecorationButtonENS_20DecorationButtonTypeES3_P7QObjectEE@Base 5.1.50
 _ZN12KDecoration221DecorationButtonGroupC2EPNS_10DecorationE@Base 5.1.50
 _ZN12KDecoration221DecorationButtonGroupD0Ev@Base 5.1.50
 _ZN12KDecoration221DecorationButtonGroupD1Ev@Base 5.1.50
 _ZN12KDecoration221DecorationButtonGroupD2Ev@Base 5.1.50
 _ZN12KDecoration25qHashERKNS_20DecorationButtonTypeE@Base 5.1.50
 _ZNK12KDecoration210Decoration10borderLeftEv@Base 5.1.50
 _ZNK12KDecoration210Decoration10metaObjectEv@Base 5.1.50
 _ZNK12KDecoration210Decoration11borderRightEv@Base 5.1.50
 _ZNK12KDecoration210Decoration12borderBottomEv@Base 5.1.50
 _ZNK12KDecoration210Decoration17resizeOnlyBordersEv@Base 5.1.50
 _ZNK12KDecoration210Decoration17sectionUnderMouseEv@Base 5.1.50
 _ZNK12KDecoration210Decoration19resizeOnlyBorderTopEv@Base 5.1.50
 _ZNK12KDecoration210Decoration20resizeOnlyBorderLeftEv@Base 5.1.50
 _ZNK12KDecoration210Decoration21resizeOnlyBorderRightEv@Base 5.1.50
 _ZNK12KDecoration210Decoration22resizeOnlyBorderBottomEv@Base 5.1.50
 _ZNK12KDecoration210Decoration4rectEv@Base 5.1.50
 _ZNK12KDecoration210Decoration4sizeEv@Base 5.1.50
 _ZNK12KDecoration210Decoration6clientEv@Base 5.1.50
 _ZNK12KDecoration210Decoration6shadowEv@Base 5.1.50
 _ZNK12KDecoration210Decoration7bordersEv@Base 5.1.50
 _ZNK12KDecoration210Decoration8isOpaqueEv@Base 5.1.50
 _ZNK12KDecoration210Decoration8settingsEv@Base 5.1.50
 _ZNK12KDecoration210Decoration8titleBarEv@Base 5.1.50
 _ZNK12KDecoration210Decoration9borderTopEv@Base 5.1.50
 _ZNK12KDecoration215DecoratedClient10decorationEv@Base 5.1.50
 _ZNK12KDecoration215DecoratedClient10isMoveableEv@Base 5.1.50
 _ZNK12KDecoration215DecoratedClient10metaObjectEv@Base 5.1.50
 _ZNK12KDecoration215DecoratedClient11isCloseableEv@Base 5.1.50
 _ZNK12KDecoration215DecoratedClient11isKeepAboveEv@Base 5.1.50
 _ZNK12KDecoration215DecoratedClient11isKeepBelowEv@Base 5.1.50
 _ZNK12KDecoration215DecoratedClient11isMaximizedEv@Base 5.1.50
 _ZNK12KDecoration215DecoratedClient11isShadeableEv@Base 5.1.50
 _ZNK12KDecoration215DecoratedClient12decorationIdEv@Base 5.1.50
 _ZNK12KDecoration215DecoratedClient12isResizeableEv@Base 5.1.50
 _ZNK12KDecoration215DecoratedClient14isMaximizeableEv@Base 5.1.50
 _ZNK12KDecoration215DecoratedClient14isMinimizeableEv@Base 5.1.50
 _ZNK12KDecoration215DecoratedClient15isOnAllDesktopsEv@Base 5.1.50
 _ZNK12KDecoration215DecoratedClient18hasApplicationMenuEv@Base 4:5.10.3
 _ZNK12KDecoration215DecoratedClient19adjacentScreenEdgesEv@Base 5.1.50
 _ZNK12KDecoration215DecoratedClient19providesContextHelpEv@Base 5.1.50
 _ZNK12KDecoration215DecoratedClient21isMaximizedVerticallyEv@Base 5.1.50
 _ZNK12KDecoration215DecoratedClient23isApplicationMenuActiveEv@Base 4:5.10.3
 _ZNK12KDecoration215DecoratedClient23isMaximizedHorizontallyEv@Base 5.1.50
 _ZNK12KDecoration215DecoratedClient4iconEv@Base 5.1.50
 _ZNK12KDecoration215DecoratedClient4sizeEv@Base 4:5.18.5
 _ZNK12KDecoration215DecoratedClient5colorEN8QPalette10ColorGroupENS1_9ColorRoleE@Base 4:5.3.0
 _ZNK12KDecoration215DecoratedClient5colorENS_10ColorGroupENS_9ColorRoleE@Base 4:5.3.0
 _ZNK12KDecoration215DecoratedClient5widthEv@Base 5.1.50
 _ZNK12KDecoration215DecoratedClient6heightEv@Base 5.1.50
 _ZNK12KDecoration215DecoratedClient7captionEv@Base 5.1.50
 _ZNK12KDecoration215DecoratedClient7desktopEv@Base 5.1.50
 _ZNK12KDecoration215DecoratedClient7isModalEv@Base 5.1.50
 _ZNK12KDecoration215DecoratedClient7paletteEv@Base 5.1.50
 _ZNK12KDecoration215DecoratedClient8isActiveEv@Base 5.1.50
 _ZNK12KDecoration215DecoratedClient8isShadedEv@Base 5.1.50
 _ZNK12KDecoration215DecoratedClient8windowIdEv@Base 5.1.50
 _ZNK12KDecoration216DecorationButton10decorationEv@Base 5.1.50
 _ZNK12KDecoration216DecorationButton10metaObjectEv@Base 5.1.50
 _ZNK12KDecoration216DecorationButton11isCheckableEv@Base 5.1.50
 _ZNK12KDecoration216DecorationButton15acceptedButtonsEv@Base 5.1.50
 _ZNK12KDecoration216DecorationButton4sizeEv@Base 5.1.50
 _ZNK12KDecoration216DecorationButton4typeEv@Base 5.1.50
 _ZNK12KDecoration216DecorationButton8containsERK7QPointF@Base 4:5.14.3
 _ZNK12KDecoration216DecorationButton8geometryEv@Base 5.1.50
 _ZNK12KDecoration216DecorationButton9isCheckedEv@Base 5.1.50
 _ZNK12KDecoration216DecorationButton9isEnabledEv@Base 5.1.50
 _ZNK12KDecoration216DecorationButton9isHoveredEv@Base 5.1.50
 _ZNK12KDecoration216DecorationButton9isPressedEv@Base 5.1.50
 _ZNK12KDecoration216DecorationButton9isVisibleEv@Base 5.1.50
 _ZNK12KDecoration216DecorationShadow10metaObjectEv@Base 5.1.50
 _ZNK12KDecoration216DecorationShadow10paddingTopEv@Base 5.1.50
 _ZNK12KDecoration216DecorationShadow11paddingLeftEv@Base 5.1.50
 _ZNK12KDecoration216DecorationShadow11topGeometryEv@Base 5.1.50
 _ZNK12KDecoration216DecorationShadow12leftGeometryEv@Base 5.1.50
 _ZNK12KDecoration216DecorationShadow12paddingRightEv@Base 5.1.50
 _ZNK12KDecoration216DecorationShadow13paddingBottomEv@Base 5.1.50
 _ZNK12KDecoration216DecorationShadow13rightGeometryEv@Base 5.1.50
 _ZNK12KDecoration216DecorationShadow14bottomGeometryEv@Base 5.1.50
 _ZNK12KDecoration216DecorationShadow15innerShadowRectEv@Base 5.1.50
 _ZNK12KDecoration216DecorationShadow15topLeftGeometryEv@Base 5.1.50
 _ZNK12KDecoration216DecorationShadow16topRightGeometryEv@Base 5.1.50
 _ZNK12KDecoration216DecorationShadow18bottomLeftGeometryEv@Base 5.1.50
 _ZNK12KDecoration216DecorationShadow19bottomRightGeometryEv@Base 5.1.50
 _ZNK12KDecoration216DecorationShadow6shadowEv@Base 5.1.50
 _ZNK12KDecoration216DecorationShadow7paddingEv@Base 5.1.50
 _ZNK12KDecoration218DecorationSettings10borderSizeEv@Base 5.1.50
 _ZNK12KDecoration218DecorationSettings10metaObjectEv@Base 5.1.50
 _ZNK12KDecoration218DecorationSettings11fontMetricsEv@Base 5.1.50
 _ZNK12KDecoration218DecorationSettings12largeSpacingEv@Base 5.1.50
 _ZNK12KDecoration218DecorationSettings12smallSpacingEv@Base 5.1.50
 _ZNK12KDecoration218DecorationSettings21decorationButtonsLeftEv@Base 5.1.50
 _ZNK12KDecoration218DecorationSettings22decorationButtonsRightEv@Base 5.1.50
 _ZNK12KDecoration218DecorationSettings23isAlphaChannelSupportedEv@Base 5.1.50
 _ZNK12KDecoration218DecorationSettings24isOnAllDesktopsAvailableEv@Base 5.1.50
 _ZNK12KDecoration218DecorationSettings26isCloseOnDoubleClickOnMenuEv@Base 5.1.50
 _ZNK12KDecoration218DecorationSettings4fontEv@Base 5.1.50
 _ZNK12KDecoration218DecorationSettings8gridUnitEv@Base 5.1.50
 _ZNK12KDecoration221DecorationButtonGroup10decorationEv@Base 5.1.50
 _ZNK12KDecoration221DecorationButtonGroup10metaObjectEv@Base 5.1.50
 _ZNK12KDecoration221DecorationButtonGroup3posEv@Base 5.1.50
 _ZNK12KDecoration221DecorationButtonGroup7buttonsEv@Base 5.1.50
 _ZNK12KDecoration221DecorationButtonGroup7spacingEv@Base 5.1.50
 _ZNK12KDecoration221DecorationButtonGroup8geometryEv@Base 5.1.50
 _ZNK12KDecoration221DecorationButtonGroup9hasButtonENS_20DecorationButtonTypeE@Base 5.1.50
 _ZTIN12KDecoration210DecorationE@Base 5.1.50
 _ZTIN12KDecoration215DecoratedClientE@Base 5.1.50
 _ZTIN12KDecoration216DecorationButtonE@Base 5.1.50
 _ZTIN12KDecoration216DecorationShadowE@Base 5.1.50
 _ZTIN12KDecoration218DecorationSettingsE@Base 5.1.50
 _ZTIN12KDecoration221DecorationButtonGroupE@Base 5.1.50
 _ZTSN12KDecoration210DecorationE@Base 5.1.50
 _ZTSN12KDecoration215DecoratedClientE@Base 5.1.50
 _ZTSN12KDecoration216DecorationButtonE@Base 5.1.50
 _ZTSN12KDecoration216DecorationShadowE@Base 5.1.50
 _ZTSN12KDecoration218DecorationSettingsE@Base 5.1.50
 _ZTSN12KDecoration221DecorationButtonGroupE@Base 5.1.50
 _ZTVN12KDecoration210DecorationE@Base 5.1.50
 _ZTVN12KDecoration215DecoratedClientE@Base 5.1.50
 _ZTVN12KDecoration216DecorationButtonE@Base 5.1.50
 _ZTVN12KDecoration216DecorationShadowE@Base 5.1.50
 _ZTVN12KDecoration218DecorationSettingsE@Base 5.1.50
 _ZTVN12KDecoration221DecorationButtonGroupE@Base 5.1.50
